(lp0
(iClass
Class
p1
(dp2
S'Code'
p3
S'\n private string atr1;\n private int atr2;\n static int atr3;\n float atr5;'
p4
sS'Partial'
p5
I00
sS'Name'
p6
S'ExampleAplication.ClassA'
p7
sS'Private'
p8
I00
sS'Public'
p9
I00
sS'Protected'
p10
I00
sS'Static'
p11
I00
sS'Properties'
p12
(lp13
(iProperty
Property
p14
(dp15
S'Body'
p16
S'<\xc2\xa7LogicalBlockStart ID=3\xc2\xa7>get;set<\xc2\xa7LogicalBlockEnd ID=3\xc2\xa7>'
p17
sg6
S'ThisIsIt'
p18
sg8
I00
sg10
I00
sg11
I00
sS'Type'
p19
S'int'
p20
sg9
I01
sbasS'Attributes'
p21
(lp22
(iAttribute
Attribute
p23
(dp24
g6
S'atr1'
p25
sg8
I01
sS'Final'
p26
I00
sg10
I00
sg11
I00
sS'Value'
p27
S''
p28
sg19
S'string'
p29
sg9
I00
sba(iAttribute
Attribute
p30
(dp31
g6
S'atr2'
p32
sg8
I01
sg26
I00
sg10
I00
sg11
I00
sg27
g28
sg19
S'int'
p33
sg9
I00
sba(iAttribute
Attribute
p34
(dp35
g6
S'atr3'
p36
sg8
I00
sg26
I00
sg10
I00
sg11
I01
sg27
g28
sg19
S'int'
p37
sg9
I00
sba(iAttribute
Attribute
p38
(dp39
g6
S'atr5'
p40
sg8
I00
sg26
I00
sg10
I00
sg11
I00
sg27
g28
sg19
S'float'
p41
sg9
I00
sbasS'Ancestors'
p42
(lp43
sg26
I00
sS'ID'
p44
I1
sS'Methods'
p45
(lp46
(iMethod
Method
p47
(dp48
g16
S'<\xc2\xa7LogicalBlockStart ID=4\xc2\xa7>\n return 0;\n <\xc2\xa7LogicalBlockEnd ID=4\xc2\xa7>'
p49
sS'Variables'
p50
(lp51
sg6
S'Dosomethig'
p52
sS'Parameters'
p53
(lp54
(iParameter
Parameter
p55
(dp56
g19
S'string'
p57
sg6
S'a'
p58
sg27
Nsba(iParameter
Parameter
p59
(dp60
g19
S'int'
p61
sg6
S'b'
p62
sg27
NsbasS'Abstract'
p63
I00
sS'Virtual'
p64
I00
sg26
I00
sg10
I00
sg11
I00
sg8
I00
sS'ReturnType'
p65
g28
sg9
I01
sS'Overrride'
p66
I00
sba(iMethod
Method
p67
(dp68
g16
S'<\xc2\xa7LogicalBlockStart ID=5\xc2\xa7>\n return <\xc2\xa7Comment ID=1\xc2\xa7>;\n <\xc2\xa7LogicalBlockEnd ID=5\xc2\xa7>'
p69
sg50
(lp70
sg6
S'DoSomethingWithString'
p71
sg53
(lp72
(iParameter
Parameter
p73
(dp74
g19
S'string'
p75
sg6
S'x'
p76
sg27
Nsba(iParameter
Parameter
p77
(dp78
g19
S'bool'
p79
sg6
S'doit'
p80
sg27
Nsbasg63
I00
sg64
I00
sg26
I00
sg10
I00
sg11
I00
sg8
I00
sg65
g28
sg9
I01
sg66
I00
sbasba(iClass
Class
p81
(dp82
g3
S'\n private string atr1;\n private int atr2;\n static int atr3;\n float atr5;'
p83
sg5
I00
sg6
S'ExampleAplication.ClassB'
p84
sg8
I00
sg9
I00
sg10
I00
sg11
I00
sg12
(lp85
(iProperty
Property
p86
(dp87
g16
S'<\xc2\xa7LogicalBlockStart ID=8\xc2\xa7>get;set<\xc2\xa7LogicalBlockEnd ID=8\xc2\xa7>'
p88
sg6
S'ThisIsIt'
p89
sg8
I00
sg10
I00
sg11
I00
sg19
S'int'
p90
sg9
I01
sbasg21
(lp91
(iAttribute
Attribute
p92
(dp93
g6
S'atr1'
p94
sg8
I01
sg26
I00
sg10
I00
sg11
I00
sg27
g28
sg19
S'string'
p95
sg9
I00
sba(iAttribute
Attribute
p96
(dp97
g6
S'atr2'
p98
sg8
I01
sg26
I00
sg10
I00
sg11
I00
sg27
g28
sg19
S'int'
p99
sg9
I00
sba(iAttribute
Attribute
p100
(dp101
g6
S'atr3'
p102
sg8
I00
sg26
I00
sg10
I00
sg11
I01
sg27
g28
sg19
S'int'
p103
sg9
I00
sba(iAttribute
Attribute
p104
(dp105
g6
S'atr5'
p106
sg8
I00
sg26
I00
sg10
I00
sg11
I00
sg27
g28
sg19
S'float'
p107
sg9
I00
sbasg42
(lp108
sg26
I00
sg44
I2
sg45
(lp109
(iMethod
Method
p110
(dp111
g16
S'<\xc2\xa7LogicalBlockStart ID=9\xc2\xa7>\n return 0;\n <\xc2\xa7LogicalBlockEnd ID=9\xc2\xa7>'
p112
sg50
(lp113
sg6
S'Dosomethig'
p114
sg53
(lp115
(iParameter
Parameter
p116
(dp117
g19
S'string'
p118
sg6
g58
sg27
Nsba(iParameter
Parameter
p119
(dp120
g19
S'int'
p121
sg6
g62
sg27
Nsbasg63
I00
sg64
I00
sg26
I00
sg10
I00
sg11
I00
sg8
I00
sg65
g28
sg9
I01
sg66
I00
sba(iMethod
Method
p122
(dp123
g16
S'<\xc2\xa7LogicalBlockStart ID=10\xc2\xa7>\n return <\xc2\xa7Comment ID=2\xc2\xa7>;\n <\xc2\xa7LogicalBlockEnd ID=10\xc2\xa7>'
p124
sg50
(lp125
sg6
S'DoSomethingWithString'
p126
sg53
(lp127
(iParameter
Parameter
p128
(dp129
g19
S'string'
p130
sg6
g76
sg27
Nsba(iParameter
Parameter
p131
(dp132
g19
S'bool'
p133
sg6
S'doit'
p134
sg27
Nsbasg63
I00
sg64
I00
sg26
I00
sg10
I00
sg11
I00
sg8
I00
sg65
g28
sg9
I01
sg66
I00
sbasba(iClass
Class
p135
(dp136
g3
S'\n private string atr1;\n private int atr2;\n static int atr3;\n float atr5;'
p137
sg5
I00
sg6
S'ExampleAplication.ClassC'
p138
sg8
I00
sg9
I00
sg10
I00
sg11
I00
sg12
(lp139
(iProperty
Property
p140
(dp141
g16
S'<\xc2\xa7LogicalBlockStart ID=13\xc2\xa7>get;set<\xc2\xa7LogicalBlockEnd ID=13\xc2\xa7>'
p142
sg6
S'ThisIsIt'
p143
sg8
I00
sg10
I00
sg11
I00
sg19
S'int'
p144
sg9
I01
sbasg21
(lp145
(iAttribute
Attribute
p146
(dp147
g6
S'atr1'
p148
sg8
I01
sg26
I00
sg10
I00
sg11
I00
sg27
g28
sg19
S'string'
p149
sg9
I00
sba(iAttribute
Attribute
p150
(dp151
g6
S'atr2'
p152
sg8
I01
sg26
I00
sg10
I00
sg11
I00
sg27
g28
sg19
S'int'
p153
sg9
I00
sba(iAttribute
Attribute
p154
(dp155
g6
S'atr3'
p156
sg8
I00
sg26
I00
sg10
I00
sg11
I01
sg27
g28
sg19
S'int'
p157
sg9
I00
sba(iAttribute
Attribute
p158
(dp159
g6
S'atr5'
p160
sg8
I00
sg26
I00
sg10
I00
sg11
I00
sg27
g28
sg19
S'float'
p161
sg9
I00
sbasg42
(lp162
sg26
I00
sg44
I3
sg45
(lp163
(iMethod
Method
p164
(dp165
g16
S'<\xc2\xa7LogicalBlockStart ID=14\xc2\xa7>\n return 0;\n <\xc2\xa7LogicalBlockEnd ID=14\xc2\xa7>'
p166
sg50
(lp167
sg6
S'Dosomethig'
p168
sg53
(lp169
(iParameter
Parameter
p170
(dp171
g19
S'string'
p172
sg6
g58
sg27
Nsba(iParameter
Parameter
p173
(dp174
g19
S'int'
p175
sg6
g62
sg27
Nsbasg63
I00
sg64
I00
sg26
I00
sg10
I00
sg11
I00
sg8
I00
sg65
g28
sg9
I01
sg66
I00
sba(iMethod
Method
p176
(dp177
g16
S'<\xc2\xa7LogicalBlockStart ID=15\xc2\xa7>\n return <\xc2\xa7Comment ID=3\xc2\xa7>;\n <\xc2\xa7LogicalBlockEnd ID=15\xc2\xa7>'
p178
sg50
(lp179
sg6
S'DoSomethingWithString'
p180
sg53
(lp181
(iParameter
Parameter
p182
(dp183
g19
S'string'
p184
sg6
g76
sg27
Nsba(iParameter
Parameter
p185
(dp186
g19
S'bool'
p187
sg6
S'doit'
p188
sg27
Nsbasg63
I00
sg64
I00
sg26
I00
sg10
I00
sg11
I00
sg8
I00
sg65
g28
sg9
I01
sg66
I00
sbasba(iClass
Class
p189
(dp190
g3
S'\n private string atr1;\n private int atr2;\n static int atr3;\n float atr5;'
p191
sg5
I00
sg6
S'ExampleAplication.ClassD'
p192
sg8
I00
sg9
I00
sg10
I00
sg11
I00
sg12
(lp193
(iProperty
Property
p194
(dp195
g16
S'<\xc2\xa7LogicalBlockStart ID=18\xc2\xa7>get;set<\xc2\xa7LogicalBlockEnd ID=18\xc2\xa7>'
p196
sg6
S'ThisIsIt'
p197
sg8
I00
sg10
I00
sg11
I00
sg19
S'int'
p198
sg9
I01
sbasg21
(lp199
(iAttribute
Attribute
p200
(dp201
g6
S'atr1'
p202
sg8
I01
sg26
I00
sg10
I00
sg11
I00
sg27
g28
sg19
S'string'
p203
sg9
I00
sba(iAttribute
Attribute
p204
(dp205
g6
S'atr2'
p206
sg8
I01
sg26
I00
sg10
I00
sg11
I00
sg27
g28
sg19
S'int'
p207
sg9
I00
sba(iAttribute
Attribute
p208
(dp209
g6
S'atr3'
p210
sg8
I00
sg26
I00
sg10
I00
sg11
I01
sg27
g28
sg19
S'int'
p211
sg9
I00
sba(iAttribute
Attribute
p212
(dp213
g6
S'atr5'
p214
sg8
I00
sg26
I00
sg10
I00
sg11
I00
sg27
g28
sg19
S'float'
p215
sg9
I00
sbasg42
(lp216
sg26
I00
sg44
I4
sg45
(lp217
(iMethod
Method
p218
(dp219
g16
S'<\xc2\xa7LogicalBlockStart ID=19\xc2\xa7>\n return 0;\n <\xc2\xa7LogicalBlockEnd ID=19\xc2\xa7>'
p220
sg50
(lp221
sg6
S'Dosomethig'
p222
sg53
(lp223
(iParameter
Parameter
p224
(dp225
g19
S'string'
p226
sg6
g58
sg27
Nsba(iParameter
Parameter
p227
(dp228
g19
S'int'
p229
sg6
g62
sg27
Nsbasg63
I00
sg64
I00
sg26
I00
sg10
I00
sg11
I00
sg8
I00
sg65
g28
sg9
I01
sg66
I00
sba(iMethod
Method
p230
(dp231
g16
S'<\xc2\xa7LogicalBlockStart ID=20\xc2\xa7>\n return <\xc2\xa7Comment ID=4\xc2\xa7>;\n <\xc2\xa7LogicalBlockEnd ID=20\xc2\xa7>'
p232
sg50
(lp233
sg6
S'DoSomethingWithString'
p234
sg53
(lp235
(iParameter
Parameter
p236
(dp237
g19
S'string'
p238
sg6
g76
sg27
Nsba(iParameter
Parameter
p239
(dp240
g19
S'bool'
p241
sg6
S'doit'
p242
sg27
Nsbasg63
I00
sg64
I00
sg26
I00
sg10
I00
sg11
I00
sg8
I00
sg65
g28
sg9
I01
sg66
I00
sbasba(iClass
Class
p243
(dp244
g3
g28
sg5
I00
sg6
S'ExampleAplication.Program'
p245
sg8
I00
sg9
I00
sg10
I00
sg11
I00
sg12
(lp246
sg21
(lp247
sg42
(lp248
sg26
I00
sg44
I5
sg45
(lp249
(iMethod
Method
p250
(dp251
g16
S'<\xc2\xa7LogicalBlockStart ID=23\xc2\xa7>\n <\xc2\xa7LogicalBlockEnd ID=23\xc2\xa7>'
p252
sg50
(lp253
sg6
S'Main'
p254
sg53
(lp255
(iParameter
Parameter
p256
(dp257
g19
S'string[]'
p258
sg6
S'args'
p259
sg27
Nsbasg63
I00
sg64
I00
sg26
I00
sg10
I00
sg11
I01
sg8
I00
sg65
g28
sg9
I00
sg66
I00
sbasba(iClass
Class
p260
(dp261
g3
S'\n private string atr1;\n private int atr2;\n static int atr3;\n float atr5;'
p262
sg5
I00
sg6
S'ExampleAplication.Internal.ClassInternalA'
p263
sg8
I00
sg9
I00
sg10
I00
sg11
I00
sg12
(lp264
(iProperty
Property
p265
(dp266
g16
S'<\xc2\xa7LogicalBlockStart ID=26\xc2\xa7> get; set; <\xc2\xa7LogicalBlockEnd ID=26\xc2\xa7>'
p267
sg6
S'ThisIsIt'
p268
sg8
I00
sg10
I00
sg11
I00
sg19
S'int'
p269
sg9
I01
sbasg21
(lp270
(iAttribute
Attribute
p271
(dp272
g6
S'atr1'
p273
sg8
I01
sg26
I00
sg10
I00
sg11
I00
sg27
g28
sg19
S'string'
p274
sg9
I00
sba(iAttribute
Attribute
p275
(dp276
g6
S'atr2'
p277
sg8
I01
sg26
I00
sg10
I00
sg11
I00
sg27
g28
sg19
S'int'
p278
sg9
I00
sba(iAttribute
Attribute
p279
(dp280
g6
S'atr3'
p281
sg8
I00
sg26
I00
sg10
I00
sg11
I01
sg27
g28
sg19
S'int'
p282
sg9
I00
sba(iAttribute
Attribute
p283
(dp284
g6
S'atr5'
p285
sg8
I00
sg26
I00
sg10
I00
sg11
I00
sg27
g28
sg19
S'float'
p286
sg9
I00
sbasg42
(lp287
sg26
I00
sg44
I6
sg45
(lp288
(iMethod
Method
p289
(dp290
g16
S'<\xc2\xa7LogicalBlockStart ID=27\xc2\xa7>\n return 0;\n <\xc2\xa7LogicalBlockEnd ID=27\xc2\xa7>'
p291
sg50
(lp292
sg6
S'Dosomethig'
p293
sg53
(lp294
(iParameter
Parameter
p295
(dp296
g19
S'string'
p297
sg6
g58
sg27
Nsba(iParameter
Parameter
p298
(dp299
g19
S'int'
p300
sg6
g62
sg27
Nsbasg63
I00
sg64
I00
sg26
I00
sg10
I00
sg11
I00
sg8
I00
sg65
g28
sg9
I01
sg66
I00
sba(iMethod
Method
p301
(dp302
g16
S'<\xc2\xa7LogicalBlockStart ID=28\xc2\xa7>\n return <\xc2\xa7Comment ID=5\xc2\xa7>;\n <\xc2\xa7LogicalBlockEnd ID=28\xc2\xa7>'
p303
sg50
(lp304
sg6
S'DoSomethingWithString'
p305
sg53
(lp306
(iParameter
Parameter
p307
(dp308
g19
S'string'
p309
sg6
g76
sg27
Nsba(iParameter
Parameter
p310
(dp311
g19
S'bool'
p312
sg6
S'doit'
p313
sg27
Nsbasg63
I00
sg64
I00
sg26
I00
sg10
I00
sg11
I00
sg8
I00
sg65
g28
sg9
I01
sg66
I00
sba(iMethod
Method
p314
(dp315
g16
S'<\xc2\xa7LogicalBlockStart ID=29\xc2\xa7>\n <\xc2\xa7LogicalBlockEnd ID=29\xc2\xa7>'
p316
sg50
(lp317
sg6
S'AnotherMethod'
p318
sg53
(lp319
sg63
I00
sg64
I00
sg26
I00
sg10
I00
sg11
I00
sg8
I01
sg65
g28
sg9
I00
sg66
I00
sbasba(iClass
Class
p320
(dp321
g3
S'\n private string atr1;\n private int atr2;\n static int atr3;\n float atr5;'
p322
sg5
I00
sg6
S'ExampleAplication.Internal.ClassX'
p323
sg8
I00
sg9
I00
sg10
I00
sg11
I00
sg12
(lp324
(iProperty
Property
p325
(dp326
g16
S'<\xc2\xa7LogicalBlockStart ID=32\xc2\xa7>get;set<\xc2\xa7LogicalBlockEnd ID=32\xc2\xa7>'
p327
sg6
S'ThisIsIt'
p328
sg8
I00
sg10
I00
sg11
I00
sg19
S'int'
p329
sg9
I01
sbasg21
(lp330
(iAttribute
Attribute
p331
(dp332
g6
S'atr1'
p333
sg8
I01
sg26
I00
sg10
I00
sg11
I00
sg27
g28
sg19
S'string'
p334
sg9
I00
sba(iAttribute
Attribute
p335
(dp336
g6
S'atr2'
p337
sg8
I01
sg26
I00
sg10
I00
sg11
I00
sg27
g28
sg19
S'int'
p338
sg9
I00
sba(iAttribute
Attribute
p339
(dp340
g6
S'atr3'
p341
sg8
I00
sg26
I00
sg10
I00
sg11
I01
sg27
g28
sg19
S'int'
p342
sg9
I00
sba(iAttribute
Attribute
p343
(dp344
g6
S'atr5'
p345
sg8
I00
sg26
I00
sg10
I00
sg11
I00
sg27
g28
sg19
S'float'
p346
sg9
I00
sbasg42
(lp347
sg26
I00
sg44
I7
sg45
(lp348
(iMethod
Method
p349
(dp350
g16
S'<\xc2\xa7LogicalBlockStart ID=33\xc2\xa7>\n return 0;\n <\xc2\xa7LogicalBlockEnd ID=33\xc2\xa7>'
p351
sg50
(lp352
sg6
S'Dosomethig'
p353
sg53
(lp354
(iParameter
Parameter
p355
(dp356
g19
S'string'
p357
sg6
g58
sg27
Nsba(iParameter
Parameter
p358
(dp359
g19
S'int'
p360
sg6
g62
sg27
Nsbasg63
I00
sg64
I00
sg26
I00
sg10
I00
sg11
I00
sg8
I00
sg65
g28
sg9
I01
sg66
I00
sba(iMethod
Method
p361
(dp362
g16
S'<\xc2\xa7LogicalBlockStart ID=34\xc2\xa7>\n return <\xc2\xa7Comment ID=6\xc2\xa7>;\n <\xc2\xa7LogicalBlockEnd ID=34\xc2\xa7>'
p363
sg50
(lp364
sg6
S'DoSomethingWithString'
p365
sg53
(lp366
(iParameter
Parameter
p367
(dp368
g19
S'string'
p369
sg6
g76
sg27
Nsba(iParameter
Parameter
p370
(dp371
g19
S'bool'
p372
sg6
S'doit'
p373
sg27
Nsbasg63
I00
sg64
I00
sg26
I00
sg10
I00
sg11
I00
sg8
I00
sg65
g28
sg9
I01
sg66
I00
sbasba.