(lp0
(iComment
Comment
p1
(dp2
S'Text'
p3
S'"something"'
p4
sS'ID'
p5
I1
sba(iComment
Comment
p6
(dp7
g3
S'"something"'
p8
sg5
I2
sba(iComment
Comment
p9
(dp10
g3
S'"something"'
p11
sg5
I3
sba(iComment
Comment
p12
(dp13
g3
S'"something"'
p14
sg5
I4
sba(iComment
Comment
p15
(dp16
g3
S'"something"'
p17
sg5
I5
sba(iComment
Comment
p18
(dp19
g3
S'"something"'
p20
sg5
I6
sba(iComment
Comment
p21
(dp22
g3
S'"ExampleAplication"'
p23
sg5
I7
sba(iComment
Comment
p24
(dp25
g3
S'""'
p26
sg5
I8
sba(iComment
Comment
p27
(dp28
g3
S'""'
p29
sg5
I9
sba(iComment
Comment
p30
(dp31
g3
S'""'
p32
sg5
I10
sba(iComment
Comment
p33
(dp34
g3
S'"ExampleAplication"'
p35
sg5
I11
sba(iComment
Comment
p36
(dp37
g3
S'"Copyright \xc2\xa9  2013"'
p38
sg5
I12
sba(iComment
Comment
p39
(dp40
g3
S'""'
p41
sg5
I13
sba(iComment
Comment
p42
(dp43
g3
S'""'
p44
sg5
I14
sba(iComment
Comment
p45
(dp46
g3
S'"0b8d9c0e-4b46-4b39-bfcf-cadb8e00636a"'
p47
sg5
I15
sba(iComment
Comment
p48
(dp49
g3
S'"1.0.*"'
p50
sg5
I16
sba(iComment
Comment
p51
(dp52
g3
S'"1.0.0.0"'
p53
sg5
I17
sba(iComment
Comment
p54
(dp55
g3
S'"1.0.0.0"'
p56
sg5
I18
sba(iComment
Comment
p57
(dp58
g3
S"'*'"
p59
sg5
I19
sba(iComment
Comment
p60
(dp61
g3
S'// General Information about an assembly is controlled through the following \n'
p62
sg5
I20
sba(iComment
Comment
p63
(dp64
g3
S'// set of attributes. Change these attribute values to modify the information\n'
p65
sg5
I21
sba(iComment
Comment
p66
(dp67
g3
S'// associated with an assembly.\n'
p68
sg5
I22
sba(iComment
Comment
p69
(dp70
g3
S'// Setting ComVisible to false makes the types in this assembly not visible \n'
p71
sg5
I23
sba(iComment
Comment
p72
(dp73
g3
S'// to COM components.  If you need to access a type in this assembly from \n'
p74
sg5
I24
sba(iComment
Comment
p75
(dp76
g3
S'// COM, set the ComVisible attribute to true on that type.\n'
p77
sg5
I25
sba(iComment
Comment
p78
(dp79
g3
S'// The following GUID is for the ID of the typelib if this project is exposed to COM\n'
p80
sg5
I26
sba(iComment
Comment
p81
(dp82
g3
S'// Version information for an assembly consists of the following four values:\n'
p83
sg5
I27
sba(iComment
Comment
p84
(dp85
g3
S'//\n'
p86
sg5
I28
sba(iComment
Comment
p87
(dp88
g3
S'//      Major Version\n'
p89
sg5
I29
sba(iComment
Comment
p90
(dp91
g3
S'//      Minor Version \n'
p92
sg5
I30
sba(iComment
Comment
p93
(dp94
g3
S'//      Build Number\n'
p95
sg5
I31
sba(iComment
Comment
p96
(dp97
g3
S'//      Revision\n'
p98
sg5
I32
sba(iComment
Comment
p99
(dp100
g3
S'//\n'
p101
sg5
I33
sba(iComment
Comment
p102
(dp103
g3
S'// You can specify all the values or you can default the Build and Revision Numbers \n'
p104
sg5
I34
sba(iComment
Comment
p105
(dp106
g3
S'// by using the <\xc2\xa7Comment ID=19\xc2\xa7> as shown below:\n'
p107
sg5
I35
sba(iComment
Comment
p108
(dp109
g3
S'// [assembly: AssemblyVersion(<\xc2\xa7Comment ID=16\xc2\xa7>)]\n'
p110
sg5
I36
sba.