(lp0
(iClass
Class
p1
(dp2
S'Code'
p3
S'\n JComboBox CBFrom, CBTo, CBClass, CBAdult, CBChildren, CBInfant;\n JLabel LFrom, LTo, LBookingDate, LClass, LAdult, LChildren, LInfant, LBookingDetails, LPassengerDetails, LDate, LImg1, LImg2, LNotes;\n JTextField TFBookingDate;\n Icon img1, img2;\n JButton BFindFlight;\n JPanel PPanel1, PPanel2;\n LoginPage type1;'
p4
sS'Partial'
p5
I00
sS'Name'
p6
S'BaseNespace.DomesticFlightJFre'
p7
sS'Private'
p8
I00
sS'Public'
p9
I01
sS'Protected'
p10
I00
sS'Static'
p11
I00
sS'Properties'
p12
(lp13
sS'Attributes'
p14
(lp15
(iAttribute
Attribute
p16
(dp17
g6
S'CBFrom'
p18
sg8
I00
sS'Final'
p19
I00
sg10
I00
sg11
I00
sS'Value'
p20
S''
p21
sS'Type'
p22
S'JComboBox'
p23
sg9
I00
sba(iAttribute
Attribute
p24
(dp25
g6
S'CBTo'
p26
sg8
I00
sg19
I00
sg10
I00
sg11
I00
sg20
g21
sg22
g23
sg9
I00
sba(iAttribute
Attribute
p27
(dp28
g6
S'CBClass'
p29
sg8
I00
sg19
I00
sg10
I00
sg11
I00
sg20
g21
sg22
g23
sg9
I00
sba(iAttribute
Attribute
p30
(dp31
g6
S'CBAdult'
p32
sg8
I00
sg19
I00
sg10
I00
sg11
I00
sg20
g21
sg22
g23
sg9
I00
sba(iAttribute
Attribute
p33
(dp34
g6
S'CBChildren'
p35
sg8
I00
sg19
I00
sg10
I00
sg11
I00
sg20
g21
sg22
g23
sg9
I00
sba(iAttribute
Attribute
p36
(dp37
g6
S'CBInfant'
p38
sg8
I00
sg19
I00
sg10
I00
sg11
I00
sg20
g21
sg22
g23
sg9
I00
sba(iAttribute
Attribute
p39
(dp40
g6
S'LFrom'
p41
sg8
I00
sg19
I00
sg10
I00
sg11
I00
sg20
g21
sg22
S'JLabel'
p42
sg9
I00
sba(iAttribute
Attribute
p43
(dp44
g6
S'LTo'
p45
sg8
I00
sg19
I00
sg10
I00
sg11
I00
sg20
g21
sg22
g42
sg9
I00
sba(iAttribute
Attribute
p46
(dp47
g6
S'LBookingDate'
p48
sg8
I00
sg19
I00
sg10
I00
sg11
I00
sg20
g21
sg22
g42
sg9
I00
sba(iAttribute
Attribute
p49
(dp50
g6
S'LClass'
p51
sg8
I00
sg19
I00
sg10
I00
sg11
I00
sg20
g21
sg22
g42
sg9
I00
sba(iAttribute
Attribute
p52
(dp53
g6
S'LAdult'
p54
sg8
I00
sg19
I00
sg10
I00
sg11
I00
sg20
g21
sg22
g42
sg9
I00
sba(iAttribute
Attribute
p55
(dp56
g6
S'LChildren'
p57
sg8
I00
sg19
I00
sg10
I00
sg11
I00
sg20
g21
sg22
g42
sg9
I00
sba(iAttribute
Attribute
p58
(dp59
g6
S'LInfant'
p60
sg8
I00
sg19
I00
sg10
I00
sg11
I00
sg20
g21
sg22
g42
sg9
I00
sba(iAttribute
Attribute
p61
(dp62
g6
S'LBookingDetails'
p63
sg8
I00
sg19
I00
sg10
I00
sg11
I00
sg20
g21
sg22
g42
sg9
I00
sba(iAttribute
Attribute
p64
(dp65
g6
S'LPassengerDetails'
p66
sg8
I00
sg19
I00
sg10
I00
sg11
I00
sg20
g21
sg22
g42
sg9
I00
sba(iAttribute
Attribute
p67
(dp68
g6
S'LDate'
p69
sg8
I00
sg19
I00
sg10
I00
sg11
I00
sg20
g21
sg22
g42
sg9
I00
sba(iAttribute
Attribute
p70
(dp71
g6
S'LImg1'
p72
sg8
I00
sg19
I00
sg10
I00
sg11
I00
sg20
g21
sg22
g42
sg9
I00
sba(iAttribute
Attribute
p73
(dp74
g6
S'LImg2'
p75
sg8
I00
sg19
I00
sg10
I00
sg11
I00
sg20
g21
sg22
g42
sg9
I00
sba(iAttribute
Attribute
p76
(dp77
g6
S'LNotes'
p78
sg8
I00
sg19
I00
sg10
I00
sg11
I00
sg20
g21
sg22
g42
sg9
I00
sba(iAttribute
Attribute
p79
(dp80
g6
S'TFBookingDate'
p81
sg8
I00
sg19
I00
sg10
I00
sg11
I00
sg20
g21
sg22
S'JTextField'
p82
sg9
I00
sba(iAttribute
Attribute
p83
(dp84
g6
S'img1'
p85
sg8
I00
sg19
I00
sg10
I00
sg11
I00
sg20
g21
sg22
S'Icon'
p86
sg9
I00
sba(iAttribute
Attribute
p87
(dp88
g6
S'img2'
p89
sg8
I00
sg19
I00
sg10
I00
sg11
I00
sg20
g21
sg22
g86
sg9
I00
sba(iAttribute
Attribute
p90
(dp91
g6
S'BFindFlight'
p92
sg8
I00
sg19
I00
sg10
I00
sg11
I00
sg20
g21
sg22
S'JButton'
p93
sg9
I00
sba(iAttribute
Attribute
p94
(dp95
g6
S'PPanel1'
p96
sg8
I00
sg19
I00
sg10
I00
sg11
I00
sg20
g21
sg22
S'JPanel'
p97
sg9
I00
sba(iAttribute
Attribute
p98
(dp99
g6
S'PPanel2'
p100
sg8
I00
sg19
I00
sg10
I00
sg11
I00
sg20
g21
sg22
g97
sg9
I00
sba(iAttribute
Attribute
p101
(dp102
g6
S'type1'
p103
sg8
I00
sg19
I00
sg10
I00
sg11
I00
sg20
g21
sg22
S'LoginPage'
p104
sg9
I00
sbasS'Ancestors'
p105
(lp106
S'am'
p107
asg19
I00
sS'ID'
p108
I1
sS'Methods'
p109
(lp110
(iMethod
Method
p111
(dp112
S'Body'
p113
S'<\xc2\xa7LogicalBlockStart ID=2\xc2\xa7>\n Container c =getContentPane();\n c.setLayout(new BorderLayout());\n String[] sItem1=<\xc2\xa7LogicalBlockStart ID=3\xc2\xa7><\xc2\xa7Comment ID=1\xc2\xa7><\xc2\xa7LogicalBlockEnd ID=3\xc2\xa7>;\n String[] sItem2 =<\xc2\xa7LogicalBlockStart ID=4\xc2\xa7> <\xc2\xa7Comment ID=2\xc2\xa7>, <\xc2\xa7Comment ID=3\xc2\xa7>, <\xc2\xa7Comment ID=4\xc2\xa7>, <\xc2\xa7Comment ID=5\xc2\xa7>, <\xc2\xa7Comment ID=6\xc2\xa7>, <\xc2\xa7Comment ID=7\xc2\xa7>, <\xc2\xa7Comment ID=8\xc2\xa7>, <\xc2\xa7Comment ID=9\xc2\xa7>, <\xc2\xa7Comment ID=10\xc2\xa7> <\xc2\xa7LogicalBlockEnd ID=4\xc2\xa7>;\n String[] sItem3=<\xc2\xa7LogicalBlockStart ID=5\xc2\xa7><\xc2\xa7Comment ID=11\xc2\xa7>,<\xc2\xa7Comment ID=12\xc2\xa7><\xc2\xa7LogicalBlockEnd ID=5\xc2\xa7>;\n\n this.type1 = type1;\n PPanel1 = new JPanel(null);\n PPanel1.setPreferredSize(new Dimension(500,200));\n\n LBookingDetails = new JLabel(<\xc2\xa7Comment ID=13\xc2\xa7>#C71585\\<\xc2\xa7Comment ID=14\xc2\xa7>);\n LFrom = new JLabel(<\xc2\xa7Comment ID=15\xc2\xa7>);\n LTo = new JLabel(<\xc2\xa7Comment ID=16\xc2\xa7>);\n LBookingDate = new JLabel(<\xc2\xa7Comment ID=17\xc2\xa7>);\n LClass = new JLabel(<\xc2\xa7Comment ID=18\xc2\xa7>);\n\n CBFrom = new JComboBox(sItem1);\n CBTo = new JComboBox(sItem2);\n CBClass = new JComboBox(sItem3);\n\n TFBookingDate = new JTextField(10);\n LDate = new JLabel(<\xc2\xa7Comment ID=19\xc2\xa7>);\n LDate.setForeground(Color.red);\n\n img1=new ImageIcon(<\xc2\xa7Comment ID=20\xc2\xa7>);\n LImg1 = new JLabel(img1);\n\n BFindFlight = new JButton(<\xc2\xa7Comment ID=21\xc2\xa7>);\n\n LBookingDetails.setBounds(20,3,100,20);\n\n LFrom.setBounds(20,40,100,20);\n CBFrom.setBounds(100,40,100,20);\n\n LTo.setBounds(20,100,100,20);\n CBTo.setBounds(100,100,100,20);\n\n LBookingDate.setBounds(14,160,100,20);\n TFBookingDate.setBounds(100,160,100,20);\n LDate.setBounds(210,160,100,20);\n\n LClass.setBounds(20,220,100,20);\n CBClass.setBounds(100,220,100,20);\n\n BFindFlight.setBounds(50,270,100,25);\n\n LImg1.setBounds(0,290,495,260);\n\n PPanel1.add(LBookingDetails);\n PPanel1.add(LFrom);\n PPanel1.add(CBFrom);\n PPanel1.add(LTo);\n PPanel1.add(CBTo);\n PPanel1.add(LBookingDate);\n PPanel1.add(TFBookingDate);\n PPanel1.add(LDate);\n PPanel1.add(LClass);\n PPanel1.add(CBClass);\n PPanel1.add(BFindFlight);\n PPanel1.add(LImg1);\n PPanel1.setBackground(Color.white);\n\n c.add(PPanel1,BorderLayout.WEST);\n\n PPanel2 = new JPanel(null);\n PPanel2.setPreferredSize(new Dimension(320,160));\n\n LPassengerDetails=new JLabel(<\xc2\xa7Comment ID=22\xc2\xa7>#C71585\\<\xc2\xa7Comment ID=23\xc2\xa7>);\n\n LAdult = new JLabel(<\xc2\xa7Comment ID=24\xc2\xa7>);\n\n LChildren = new JLabel(<\xc2\xa7Comment ID=25\xc2\xa7>);\n LInfant = new JLabel(<\xc2\xa7Comment ID=26\xc2\xa7>);\n\n String[] item4=<\xc2\xa7LogicalBlockStart ID=6\xc2\xa7><\xc2\xa7Comment ID=27\xc2\xa7>,<\xc2\xa7Comment ID=28\xc2\xa7>,<\xc2\xa7Comment ID=29\xc2\xa7>,<\xc2\xa7Comment ID=30\xc2\xa7>,<\xc2\xa7Comment ID=31\xc2\xa7>,<\xc2\xa7Comment ID=32\xc2\xa7><\xc2\xa7LogicalBlockEnd ID=6\xc2\xa7>;\n CBAdult = new JComboBox(item4);\n\n String[] item5=<\xc2\xa7LogicalBlockStart ID=7\xc2\xa7><\xc2\xa7Comment ID=33\xc2\xa7>,<\xc2\xa7Comment ID=34\xc2\xa7>,<\xc2\xa7Comment ID=35\xc2\xa7>,<\xc2\xa7Comment ID=36\xc2\xa7>,<\xc2\xa7Comment ID=37\xc2\xa7><\xc2\xa7LogicalBlockEnd ID=7\xc2\xa7>;\n CBChildren = new JComboBox(item5);\n\n String[] item6=<\xc2\xa7LogicalBlockStart ID=8\xc2\xa7><\xc2\xa7Comment ID=38\xc2\xa7>,<\xc2\xa7Comment ID=39\xc2\xa7>,<\xc2\xa7Comment ID=40\xc2\xa7>,<\xc2\xa7Comment ID=41\xc2\xa7><\xc2\xa7LogicalBlockEnd ID=8\xc2\xa7>;\n CBInfant = new JComboBox(item6);\n\n img2 = new ImageIcon(<\xc2\xa7Comment ID=42\xc2\xa7>);\n LImg2 = new JLabel(img2);\n LNotes = new JLabel(<\xc2\xa7Comment ID=43\xc2\xa7>);\n\n LPassengerDetails.setBounds(40,3,100,20);\n\n LAdult.setBounds(40,40,100,20);\n CBAdult.setBounds(140,40,100,20);\n\n LChildren.setBounds(40,105,100,20);\n CBChildren.setBounds(140,105,100,20);\n\n LInfant.setBounds(40,170,100,20);\n CBInfant.setBounds(140,170,100,20);\n\n LImg2.setBounds(16,220,320,200);\n LNotes.setBounds(55,240,380,180);\n\n PPanel2.add(LPassengerDetails);\n PPanel2.add(LAdult);\n PPanel2.add(LChildren);\n PPanel2.add(LInfant);\n PPanel2.add(CBAdult);\n PPanel2.add(CBChildren);\n PPanel2.add(CBInfant);\n\n PPanel2.add(LNotes);\n PPanel2.add(LImg2);\n\n PPanel2.setBackground(Color.white);\n\n c.add(PPanel2,BorderLayout.EAST);\n\n setSize(795,580);\n setVisible(true);\n\n BFindFlight.addActionListener(new button3(this, type1));\n <\xc2\xa7LogicalBlockEnd ID=2\xc2\xa7>'
p114
sS'Variables'
p115
(lp116
sg6
S'DomesticFlight'
p117
sS'Parameters'
p118
(lp119
(iParameter
Parameter
p120
(dp121
g22
S'LoginPage'
p122
sg6
S'type1'
p123
sg20
NsbasS'Abstract'
p124
I00
sS'Virtual'
p125
I00
sg19
I00
sg10
I00
sg11
I00
sg8
I00
sS'ReturnType'
p126
g21
sg9
I01
sS'Overrride'
p127
I00
sba(iMethod
Method
p128
(dp129
g113
S'<\xc2\xa7LogicalBlockStart ID=9\xc2\xa7>\n LoginPage type1=null;\n new DomesticFlight(type1);\n <\xc2\xa7LogicalBlockEnd ID=9\xc2\xa7>'
p130
sg115
(lp131
sg6
S'main'
p132
sg118
(lp133
(iParameter
Parameter
p134
(dp135
g22
S'String'
p136
sg6
S'args[]'
p137
sg20
Nsbasg124
I00
sg125
I00
sg19
I00
sg10
I00
sg11
I01
sg8
I00
sg126
S'void'
p138
sg9
I01
sg127
I00
sbasba(iClass
Class
p139
(dp140
g3
g21
sg5
I00
sg6
S'BaseNamespace.ExitListenerWin'
p141
sg8
I00
sg9
I01
sg10
I00
sg11
I00
sg12
(lp142
sg14
(lp143
sg105
(lp144
S'dowAdapter'
p145
asg19
I00
sg108
I2
sg109
(lp146
(iMethod
Method
p147
(dp148
g113
S'<\xc2\xa7LogicalBlockStart ID=37\xc2\xa7>\n System.exit(0);\n <\xc2\xa7LogicalBlockEnd ID=37\xc2\xa7>'
p149
sg115
(lp150
sg6
S'windowClosing'
p151
sg118
(lp152
(iParameter
Parameter
p153
(dp154
g22
S'WindowEvent'
p155
sg6
S'event'
p156
sg20
Nsbasg124
I00
sg125
I00
sg19
I00
sg10
I00
sg11
I00
sg8
I00
sg126
S'void'
p157
sg9
I01
sg127
I00
sbasba(iClass
Class
p158
(dp159
g3
S'\n JComboBox CBFrom, CBTo, CBClass, CBAdult, CBChildren, CBInfant;\n JLabel LFrom, LTo, LBookingDate, LClass, LAdult, LChildren, LInfant, LBookingDetails, LPassengerDetails, LDate, LImg1, LImg2, LNotes;\n JTextField TFBookingDate;\n Icon img1, img2;\n JButton BFindFlight;\n JPanel PPanel1, PPanel2;\n LoginPage type1;'
p160
sg5
I00
sg6
S'BaseNespace.InternationalFlightJFre'
p161
sg8
I00
sg9
I01
sg10
I00
sg11
I00
sg12
(lp162
sg14
(lp163
(iAttribute
Attribute
p164
(dp165
g6
S'CBFrom'
p166
sg8
I00
sg19
I00
sg10
I00
sg11
I00
sg20
g21
sg22
S'JComboBox'
p167
sg9
I00
sba(iAttribute
Attribute
p168
(dp169
g6
S'CBTo'
p170
sg8
I00
sg19
I00
sg10
I00
sg11
I00
sg20
g21
sg22
g167
sg9
I00
sba(iAttribute
Attribute
p171
(dp172
g6
S'CBClass'
p173
sg8
I00
sg19
I00
sg10
I00
sg11
I00
sg20
g21
sg22
g167
sg9
I00
sba(iAttribute
Attribute
p174
(dp175
g6
S'CBAdult'
p176
sg8
I00
sg19
I00
sg10
I00
sg11
I00
sg20
g21
sg22
g167
sg9
I00
sba(iAttribute
Attribute
p177
(dp178
g6
S'CBChildren'
p179
sg8
I00
sg19
I00
sg10
I00
sg11
I00
sg20
g21
sg22
g167
sg9
I00
sba(iAttribute
Attribute
p180
(dp181
g6
S'CBInfant'
p182
sg8
I00
sg19
I00
sg10
I00
sg11
I00
sg20
g21
sg22
g167
sg9
I00
sba(iAttribute
Attribute
p183
(dp184
g6
S'LFrom'
p185
sg8
I00
sg19
I00
sg10
I00
sg11
I00
sg20
g21
sg22
S'JLabel'
p186
sg9
I00
sba(iAttribute
Attribute
p187
(dp188
g6
S'LTo'
p189
sg8
I00
sg19
I00
sg10
I00
sg11
I00
sg20
g21
sg22
g186
sg9
I00
sba(iAttribute
Attribute
p190
(dp191
g6
S'LBookingDate'
p192
sg8
I00
sg19
I00
sg10
I00
sg11
I00
sg20
g21
sg22
g186
sg9
I00
sba(iAttribute
Attribute
p193
(dp194
g6
S'LClass'
p195
sg8
I00
sg19
I00
sg10
I00
sg11
I00
sg20
g21
sg22
g186
sg9
I00
sba(iAttribute
Attribute
p196
(dp197
g6
S'LAdult'
p198
sg8
I00
sg19
I00
sg10
I00
sg11
I00
sg20
g21
sg22
g186
sg9
I00
sba(iAttribute
Attribute
p199
(dp200
g6
S'LChildren'
p201
sg8
I00
sg19
I00
sg10
I00
sg11
I00
sg20
g21
sg22
g186
sg9
I00
sba(iAttribute
Attribute
p202
(dp203
g6
S'LInfant'
p204
sg8
I00
sg19
I00
sg10
I00
sg11
I00
sg20
g21
sg22
g186
sg9
I00
sba(iAttribute
Attribute
p205
(dp206
g6
S'LBookingDetails'
p207
sg8
I00
sg19
I00
sg10
I00
sg11
I00
sg20
g21
sg22
g186
sg9
I00
sba(iAttribute
Attribute
p208
(dp209
g6
S'LPassengerDetails'
p210
sg8
I00
sg19
I00
sg10
I00
sg11
I00
sg20
g21
sg22
g186
sg9
I00
sba(iAttribute
Attribute
p211
(dp212
g6
S'LDate'
p213
sg8
I00
sg19
I00
sg10
I00
sg11
I00
sg20
g21
sg22
g186
sg9
I00
sba(iAttribute
Attribute
p214
(dp215
g6
S'LImg1'
p216
sg8
I00
sg19
I00
sg10
I00
sg11
I00
sg20
g21
sg22
g186
sg9
I00
sba(iAttribute
Attribute
p217
(dp218
g6
S'LImg2'
p219
sg8
I00
sg19
I00
sg10
I00
sg11
I00
sg20
g21
sg22
g186
sg9
I00
sba(iAttribute
Attribute
p220
(dp221
g6
S'LNotes'
p222
sg8
I00
sg19
I00
sg10
I00
sg11
I00
sg20
g21
sg22
g186
sg9
I00
sba(iAttribute
Attribute
p223
(dp224
g6
S'TFBookingDate'
p225
sg8
I00
sg19
I00
sg10
I00
sg11
I00
sg20
g21
sg22
S'JTextField'
p226
sg9
I00
sba(iAttribute
Attribute
p227
(dp228
g6
S'img1'
p229
sg8
I00
sg19
I00
sg10
I00
sg11
I00
sg20
g21
sg22
S'Icon'
p230
sg9
I00
sba(iAttribute
Attribute
p231
(dp232
g6
S'img2'
p233
sg8
I00
sg19
I00
sg10
I00
sg11
I00
sg20
g21
sg22
g230
sg9
I00
sba(iAttribute
Attribute
p234
(dp235
g6
S'BFindFlight'
p236
sg8
I00
sg19
I00
sg10
I00
sg11
I00
sg20
g21
sg22
S'JButton'
p237
sg9
I00
sba(iAttribute
Attribute
p238
(dp239
g6
S'PPanel1'
p240
sg8
I00
sg19
I00
sg10
I00
sg11
I00
sg20
g21
sg22
S'JPanel'
p241
sg9
I00
sba(iAttribute
Attribute
p242
(dp243
g6
S'PPanel2'
p244
sg8
I00
sg19
I00
sg10
I00
sg11
I00
sg20
g21
sg22
g241
sg9
I00
sba(iAttribute
Attribute
p245
(dp246
g6
S'type1'
p247
sg8
I00
sg19
I00
sg10
I00
sg11
I00
sg20
g21
sg22
S'LoginPage'
p248
sg9
I00
sbasg105
(lp249
S'am'
p250
asg19
I00
sg108
I3
sg109
(lp251
(iMethod
Method
p252
(dp253
g113
S'<\xc2\xa7LogicalBlockStart ID=39\xc2\xa7>\n Container c =getContentPane();\n c.setLayout(new BorderLayout());\n String[] sItem1=<\xc2\xa7LogicalBlockStart ID=40\xc2\xa7><\xc2\xa7Comment ID=65\xc2\xa7><\xc2\xa7LogicalBlockEnd ID=40\xc2\xa7>;\n String[] sItem2=<\xc2\xa7LogicalBlockStart ID=41\xc2\xa7><\xc2\xa7Comment ID=66\xc2\xa7>,<\xc2\xa7Comment ID=67\xc2\xa7>,<\xc2\xa7Comment ID=68\xc2\xa7>,<\xc2\xa7Comment ID=69\xc2\xa7>,<\xc2\xa7Comment ID=70\xc2\xa7>,<\xc2\xa7Comment ID=71\xc2\xa7>,<\xc2\xa7Comment ID=72\xc2\xa7>,<\xc2\xa7Comment ID=73\xc2\xa7>,<\xc2\xa7Comment ID=74\xc2\xa7>,<\xc2\xa7Comment ID=75\xc2\xa7>,<\xc2\xa7Comment ID=76\xc2\xa7>,<\xc2\xa7Comment ID=77\xc2\xa7>,<\xc2\xa7Comment ID=78\xc2\xa7>,<\xc2\xa7Comment ID=79\xc2\xa7>,<\xc2\xa7Comment ID=80\xc2\xa7>,<\xc2\xa7Comment ID=81\xc2\xa7>,<\xc2\xa7Comment ID=82\xc2\xa7>,<\xc2\xa7Comment ID=83\xc2\xa7>,<\xc2\xa7Comment ID=84\xc2\xa7>,<\xc2\xa7Comment ID=85\xc2\xa7><\xc2\xa7LogicalBlockEnd ID=41\xc2\xa7>;\n String[] sItem3=<\xc2\xa7LogicalBlockStart ID=42\xc2\xa7><\xc2\xa7Comment ID=86\xc2\xa7>,<\xc2\xa7Comment ID=87\xc2\xa7><\xc2\xa7LogicalBlockEnd ID=42\xc2\xa7>;\n\n this.type1 = type1;\n PPanel1 = new JPanel(null);\n PPanel1.setPreferredSize(new Dimension(500,200));\n\n LBookingDetails = new JLabel(<\xc2\xa7Comment ID=88\xc2\xa7>#C71585\\<\xc2\xa7Comment ID=89\xc2\xa7>);\n LFrom = new JLabel(<\xc2\xa7Comment ID=90\xc2\xa7>);\n LTo = new JLabel(<\xc2\xa7Comment ID=91\xc2\xa7>);\n LBookingDate = new JLabel(<\xc2\xa7Comment ID=92\xc2\xa7>);\n LClass = new JLabel(<\xc2\xa7Comment ID=93\xc2\xa7>);\n\n CBFrom = new JComboBox(sItem1);\n CBTo = new JComboBox(sItem2);\n CBClass = new JComboBox(sItem3);\n\n TFBookingDate = new JTextField(10);\n LDate = new JLabel(<\xc2\xa7Comment ID=94\xc2\xa7>);\n LDate.setForeground(Color.red);\n\n img1=new ImageIcon(<\xc2\xa7Comment ID=95\xc2\xa7>);\n LImg1 = new JLabel(img1);\n\n BFindFlight = new JButton(<\xc2\xa7Comment ID=96\xc2\xa7>);\n\n LBookingDetails.setBounds(20,3,100,20);\n\n LFrom.setBounds(20,40,100,20);\n CBFrom.setBounds(100,40,100,20);\n\n LTo.setBounds(20,100,100,20);\n CBTo.setBounds(100,100,100,20);\n\n LBookingDate.setBounds(14,160,100,20);\n TFBookingDate.setBounds(100,160,100,20);\n LDate.setBounds(210,160,100,20);\n\n LClass.setBounds(20,220,100,20);\n CBClass.setBounds(100,220,100,20);\n\n BFindFlight.setBounds(50,270,100,25);\n\n LImg1.setBounds(0,290,495,260);\n\n PPanel1.add(LBookingDetails);\n PPanel1.add(LFrom);\n PPanel1.add(CBFrom);\n PPanel1.add(LTo);\n PPanel1.add(CBTo);\n PPanel1.add(LBookingDate);\n PPanel1.add(TFBookingDate);\n PPanel1.add(LDate);\n PPanel1.add(LClass);\n PPanel1.add(CBClass);\n PPanel1.add(BFindFlight);\n PPanel1.add(LImg1);\n PPanel1.setBackground(Color.white);\n\n c.add(PPanel1,BorderLayout.WEST);\n\n PPanel2 = new JPanel(null);\n PPanel2.setPreferredSize(new Dimension(320,160));\n\n LPassengerDetails=new JLabel(<\xc2\xa7Comment ID=97\xc2\xa7>#C71585\\<\xc2\xa7Comment ID=98\xc2\xa7>);\n\n LAdult = new JLabel(<\xc2\xa7Comment ID=99\xc2\xa7>);\n\n LChildren = new JLabel(<\xc2\xa7Comment ID=100\xc2\xa7>);\n LInfant = new JLabel(<\xc2\xa7Comment ID=101\xc2\xa7>);\n\n String[] item4=<\xc2\xa7LogicalBlockStart ID=43\xc2\xa7><\xc2\xa7Comment ID=102\xc2\xa7>,<\xc2\xa7Comment ID=103\xc2\xa7>,<\xc2\xa7Comment ID=104\xc2\xa7>,<\xc2\xa7Comment ID=105\xc2\xa7>,<\xc2\xa7Comment ID=106\xc2\xa7>,<\xc2\xa7Comment ID=107\xc2\xa7><\xc2\xa7LogicalBlockEnd ID=43\xc2\xa7>;\n CBAdult = new JComboBox(item4);\n\n String[] item5=<\xc2\xa7LogicalBlockStart ID=44\xc2\xa7><\xc2\xa7Comment ID=108\xc2\xa7>,<\xc2\xa7Comment ID=109\xc2\xa7>,<\xc2\xa7Comment ID=110\xc2\xa7>,<\xc2\xa7Comment ID=111\xc2\xa7>,<\xc2\xa7Comment ID=112\xc2\xa7><\xc2\xa7LogicalBlockEnd ID=44\xc2\xa7>;\n CBChildren = new JComboBox(item5);\n\n String[] item6=<\xc2\xa7LogicalBlockStart ID=45\xc2\xa7><\xc2\xa7Comment ID=113\xc2\xa7>,<\xc2\xa7Comment ID=114\xc2\xa7>,<\xc2\xa7Comment ID=115\xc2\xa7>,<\xc2\xa7Comment ID=116\xc2\xa7><\xc2\xa7LogicalBlockEnd ID=45\xc2\xa7>;\n CBInfant = new JComboBox(item6);\n\n img2 = new ImageIcon(<\xc2\xa7Comment ID=117\xc2\xa7>);\n LImg2 = new JLabel(img2);\n LNotes = new JLabel(<\xc2\xa7Comment ID=118\xc2\xa7>);\n\n LPassengerDetails.setBounds(40,3,100,20);\n\n LAdult.setBounds(40,40,100,20);\n CBAdult.setBounds(140,40,100,20);\n\n LChildren.setBounds(40,105,100,20);\n CBChildren.setBounds(140,105,100,20);\n\n LInfant.setBounds(40,170,100,20);\n CBInfant.setBounds(140,170,100,20);\n\n LImg2.setBounds(16,220,320,200);\n LNotes.setBounds(55,240,380,180);\n\n PPanel2.add(LPassengerDetails);\n PPanel2.add(LAdult);\n PPanel2.add(LChildren);\n PPanel2.add(LInfant);\n PPanel2.add(CBAdult);\n PPanel2.add(CBChildren);\n PPanel2.add(CBInfant);\n\n PPanel2.add(LNotes);\n PPanel2.add(LImg2);\n\n PPanel2.setBackground(Color.white);\n\n c.add(PPanel2,BorderLayout.EAST);\n\n setSize(795,580);\n setVisible(true);\n\n BFindFlight.addActionListener(new button2(this, type1));\n <\xc2\xa7LogicalBlockEnd ID=39\xc2\xa7>'
p254
sg115
(lp255
sg6
S'InternationalFlight'
p256
sg118
(lp257
(iParameter
Parameter
p258
(dp259
g22
S'LoginPage'
p260
sg6
S'type1'
p261
sg20
Nsbasg124
I00
sg125
I00
sg19
I00
sg10
I00
sg11
I00
sg8
I00
sg126
g21
sg9
I01
sg127
I00
sba(iMethod
Method
p262
(dp263
g113
S'<\xc2\xa7LogicalBlockStart ID=46\xc2\xa7>\n LoginPage type1=null;\n new InternationalFlight(type1);\n <\xc2\xa7LogicalBlockEnd ID=46\xc2\xa7>'
p264
sg115
(lp265
sg6
S'main'
p266
sg118
(lp267
(iParameter
Parameter
p268
(dp269
g22
S'String'
p270
sg6
S'args[]'
p271
sg20
Nsbasg124
I00
sg125
I00
sg19
I00
sg10
I00
sg11
I01
sg8
I00
sg126
S'void'
p272
sg9
I01
sg127
I00
sbasba(iClass
Class
p273
(dp274
g3
S'\n public boolean bCheck=true;\n JLabel LUserName, LPassword;\n JTextField TFUserName;\n JPasswordField TPPassword;\n JButton BLogin;\n JTable TDomesticFlight;\n JTable TInternationalFlight;\n JTable TDomesticFlight1;\n JTable TInternationalFlight1;'
p275
sg5
I00
sg6
S'BaseNespace.LoginPageJFre'
p276
sg8
I00
sg9
I01
sg10
I00
sg11
I00
sg12
(lp277
sg14
(lp278
(iAttribute
Attribute
p279
(dp280
g6
S'bCheck'
p281
sg8
I00
sg19
I00
sg10
I00
sg11
I00
sg20
S'true'
p282
sg22
S'boolean'
p283
sg9
I01
sba(iAttribute
Attribute
p284
(dp285
g6
S'LUserName'
p286
sg8
I00
sg19
I00
sg10
I00
sg11
I00
sg20
g21
sg22
S'JLabel'
p287
sg9
I00
sba(iAttribute
Attribute
p288
(dp289
g6
S'LPassword'
p290
sg8
I00
sg19
I00
sg10
I00
sg11
I00
sg20
g21
sg22
g287
sg9
I00
sba(iAttribute
Attribute
p291
(dp292
g6
S'TFUserName'
p293
sg8
I00
sg19
I00
sg10
I00
sg11
I00
sg20
g21
sg22
S'JTextField'
p294
sg9
I00
sba(iAttribute
Attribute
p295
(dp296
g6
S'TPPassword'
p297
sg8
I00
sg19
I00
sg10
I00
sg11
I00
sg20
g21
sg22
S'JPasswordField'
p298
sg9
I00
sba(iAttribute
Attribute
p299
(dp300
g6
S'BLogin'
p301
sg8
I00
sg19
I00
sg10
I00
sg11
I00
sg20
g21
sg22
S'JButton'
p302
sg9
I00
sba(iAttribute
Attribute
p303
(dp304
g6
S'TDomesticFlight'
p305
sg8
I00
sg19
I00
sg10
I00
sg11
I00
sg20
g21
sg22
S'JTable'
p306
sg9
I00
sba(iAttribute
Attribute
p307
(dp308
g6
S'TInternationalFlight'
p309
sg8
I00
sg19
I00
sg10
I00
sg11
I00
sg20
g21
sg22
S'JTable'
p310
sg9
I00
sba(iAttribute
Attribute
p311
(dp312
g6
S'TDomesticFlight1'
p313
sg8
I00
sg19
I00
sg10
I00
sg11
I00
sg20
g21
sg22
S'JTable'
p314
sg9
I00
sba(iAttribute
Attribute
p315
(dp316
g6
S'TInternationalFlight1'
p317
sg8
I00
sg19
I00
sg10
I00
sg11
I00
sg20
g21
sg22
S'JTable'
p318
sg9
I00
sbasg105
(lp319
S'am'
p320
asg19
I00
sg108
I4
sg109
(lp321
(iMethod
Method
p322
(dp323
g113
S'<\xc2\xa7LogicalBlockStart ID=74\xc2\xa7>\n WindowUtilities.setNativeLookAndFeel();\n setPreferredSize(new Dimension(796,572));\n\n PFlightTypes.setBackground(Color.white);\n PLogin.setBackground(Color.white);\n PFlightDetails.setBackground(Color.white);\n\n JSP1.setBounds(0, 340, 790, 200);\n JSP2.setBounds(0, 340, 790, 200);\n JSP3.setBounds(0, 340, 790, 200);\n JSP4.setBounds(0, 340, 790, 200);\n\n PFlightTypes.setBounds(0,0,500, 340);\n PLogin.setBounds(500,0,350, 340);\n PFlightDetails.setBounds(0,340,790,200);\n\n\n LUserName = new JLabel(<\xc2\xa7Comment ID=140\xc2\xa7>);\n LPassword = new JLabel(<\xc2\xa7Comment ID=141\xc2\xa7>);\n TFUserName = new JTextField(10);\n TPPassword = new JPasswordField(10);\n BLogin = new JButton(<\xc2\xa7Comment ID=142\xc2\xa7>);\n\n LUserName.setBounds(40, 100, 100, 21);\n LPassword.setBounds(40, 140, 100, 21);\n TFUserName.setBounds(160, 100, 100, 21);\n TPPassword.setBounds(160, 140, 100, 21);\n BLogin.setBounds(160, 200, 100,25);\n\n LDomesticFlight1.setBounds(60, 60, 138, 20);\n LInternationalFlight1.setBounds(60, 100, 153, 20);\n\n PLogin.add(LUserName);\n PLogin.add(TFUserName);\n PLogin.add(LPassword);\n PLogin.add(TPPassword);\n PLogin.add(BLogin);\n\n PFlightDetails.add(JSP1);\n PFlightDetails.add(JSP2);\n PFlightDetails.add(JSP3);\n PFlightDetails.add(JSP4);\n\n JSP1.setVisible(true);\n JSP2.setVisible(false);\n JSP3.setVisible(false);\n JSP4.setVisible(false);\n\n LBusiness.setBounds(265, 170, 300, 125);\n LEconomic.setBounds(0, 170, 250, 125);\n LBusiness1.setBounds(280, 200, 135, 60);\n LEconomic1.setBounds(50, 200, 147, 60);\n\n PFlightTypes.add(LEconomic);\n PFlightTypes.add(LBusiness);\n PFlightTypes.add(LEconomic1);\n PFlightTypes.add(LBusiness1);\n\n LBusiness.setVisible(false);\n LEconomic1.setVisible(false);\n LBusiness1.setVisible(true);\n LEconomic.setVisible(true);\n\n\n LDomesticFlight.setBounds(60, 60, 100, 25);\n LInternationalFlight.setBounds(60, 100, 120, 25);\n\n c.add(PFlightTypes);\n c.add(PLogin);\n c.add(PFlightDetails);\n\n PFlightTypes.add(LDomesticFlight);\n PFlightTypes.add(LInternationalFlight);\n\n pack();\n setVisible(true);\n\n addWindowListener(new ExitListener());\n\n LDomesticFlight.addMouseListener(new mouse1(this, true));\n LInternationalFlight.addMouseListener(new mouse1(this, false));\n\n LDomesticFlight1.addMouseListener(new mouse3(this, true));\n LInternationalFlight1.addMouseListener(new mouse3(this, false));\n\n LBusiness1.addMouseListener(new mouse2(this, true));\n LEconomic1.addMouseListener(new mouse2(this, false));\n\n BLogin.addActionListener(new button1(this));\n <\xc2\xa7LogicalBlockEnd ID=74\xc2\xa7>'
p324
sg115
(lp325
sg6
S'LoginPage'
p326
sg118
(lp327
sg124
I00
sg125
I00
sg19
I00
sg10
I00
sg11
I00
sg8
I00
sg126
g21
sg9
I01
sg127
I00
sba(iMethod
Method
p328
(dp329
g113
S'<\xc2\xa7LogicalBlockStart ID=75\xc2\xa7>\n new LoginPage();\n <\xc2\xa7LogicalBlockEnd ID=75\xc2\xa7>'
p330
sg115
(lp331
sg6
S'main'
p332
sg118
(lp333
(iParameter
Parameter
p334
(dp335
g22
S'String'
p336
sg6
S'args[]'
p337
sg20
Nsbasg124
I00
sg125
I00
sg19
I00
sg10
I00
sg11
I01
sg8
I00
sg126
S'void'
p338
sg9
I01
sg127
I00
sbasba(iClass
Class
p339
(dp340
g3
g21
sg5
I00
sg6
S'BaseNespace.PrintTicket1JFre'
p341
sg8
I00
sg9
I01
sg10
I00
sg11
I00
sg12
(lp342
sg14
(lp343
sg105
(lp344
S'am'
p345
asg19
I00
sg108
I5
sg109
(lp346
(iMethod
Method
p347
(dp348
g113
S'<\xc2\xa7LogicalBlockStart ID=103\xc2\xa7>\n Container c=getContentPane();\n c.setLayout(new BorderLayout());\n\n\n JPanel Panel2 = new JPanel(null);\n\n Panel2.setPreferredSize(new Dimension(500,200));\n\n JLabel LTitle;\n JLabel LFrom ;\n JLabel LTo;\n JLabel LClass;\n JLabel LBookingDate;\n JLabel LPrice;\n JLabel LTime;\n JLabel LAdult;\n JLabel LChildren;\n JLabel LInfant;\n JLabel LWishes;\n\n\n JLabel LTicketNo;\n JLabel LBookedBy;\n\n JLabel LEmpty;\n JLabel LDemo;\n JLabel LFranklin;\n JLabel LRavi;\n JLabel LMayuran;\n JLabel LSathya;\n\n\n\n\n <\xc2\xa7Comment ID=151\xc2\xa7>\n setSize(700,650);\n setVisible(true);\n <\xc2\xa7LogicalBlockEnd ID=103\xc2\xa7>'
p349
sg115
(lp350
sg6
S'PrintTicket1'
p351
sg118
(lp352
(iParameter
Parameter
p353
(dp354
g22
S'String'
p355
sg6
S'sFrom'
p356
sg20
Nsba(iParameter
Parameter
p357
(dp358
g22
S'String'
p359
sg6
S'sTo'
p360
sg20
Nsba(iParameter
Parameter
p361
(dp362
g22
S'String'
p363
sg6
S'sClass'
p364
sg20
Nsba(iParameter
Parameter
p365
(dp366
g22
S'Integer'
p367
sg6
S'iAdult'
p368
sg20
Nsba(iParameter
Parameter
p369
(dp370
g22
S'Integer'
p371
sg6
S'iChildren'
p372
sg20
Nsba(iParameter
Parameter
p373
(dp374
g22
S'Integer'
p375
sg6
S'iInfant'
p376
sg20
Nsba(iParameter
Parameter
p377
(dp378
g22
S'String'
p379
sg6
S'sBookingDate'
p380
sg20
Nsba(iParameter
Parameter
p381
(dp382
g22
S'Integer'
p383
sg6
S'iPrice'
p384
sg20
Nsba(iParameter
Parameter
p385
(dp386
g22
S'String'
p387
sg6
S'sTime'
p388
sg20
Nsbasg124
I00
sg125
I00
sg19
I00
sg10
I00
sg11
I00
sg8
I00
sg126
g21
sg9
I01
sg127
I00
sbasba(iClass
Class
p389
(dp390
g3
g21
sg5
I00
sg6
S'BaseNamespace.WindowUtilities'
p391
sg8
I00
sg9
I01
sg10
I00
sg11
I00
sg12
(lp392
sg14
(lp393
sg105
(lp394
sg19
I00
sg108
I6
sg109
(lp395
(iMethod
Method
p396
(dp397
g113
S'<\xc2\xa7LogicalBlockStart ID=105\xc2\xa7>\n try\n <\xc2\xa7LogicalBlockStart ID=106\xc2\xa7>\n  UIManager.setLookAndFeel(UIManager.getSystemLookAndFeelClassName());\n <\xc2\xa7LogicalBlockEnd ID=106\xc2\xa7>catch(Exception e)\n <\xc2\xa7LogicalBlockStart ID=107\xc2\xa7>\n  System.out.println(<\xc2\xa7Comment ID=152\xc2\xa7> + e);\n <\xc2\xa7LogicalBlockEnd ID=107\xc2\xa7>\n <\xc2\xa7LogicalBlockEnd ID=105\xc2\xa7>'
p398
sg115
(lp399
sg6
S'setNativeLookAndFeel'
p400
sg118
(lp401
sg124
I00
sg125
I00
sg19
I00
sg10
I00
sg11
I01
sg8
I00
sg126
S'void'
p402
sg9
I01
sg127
I00
sbasba.