(lp0
(iComment
Comment
p1
(dp2
S'Text'
p3
S'"Trivandrum"'
p4
sS'ID'
p5
I1
sba(iComment
Comment
p6
(dp7
g3
S'"Bangalore"'
p8
sg5
I2
sba(iComment
Comment
p9
(dp10
g3
S'"Chennai "'
p11
sg5
I3
sba(iComment
Comment
p12
(dp13
g3
S'"Delhi"'
p14
sg5
I4
sba(iComment
Comment
p15
(dp16
g3
S'"Goa"'
p17
sg5
I5
sba(iComment
Comment
p18
(dp19
g3
S'"Hyderabad"'
p20
sg5
I6
sba(iComment
Comment
p21
(dp22
g3
S'"Kolkata"'
p23
sg5
I7
sba(iComment
Comment
p24
(dp25
g3
S'"Lucknow"'
p26
sg5
I8
sba(iComment
Comment
p27
(dp28
g3
S'"Mumbai"'
p29
sg5
I9
sba(iComment
Comment
p30
(dp31
g3
S'"Vishakapatnam"'
p32
sg5
I10
sba(iComment
Comment
p33
(dp34
g3
S'"Economic"'
p35
sg5
I11
sba(iComment
Comment
p36
(dp37
g3
S'"Business"'
p38
sg5
I12
sba(iComment
Comment
p39
(dp40
g3
S'"<html><b><font color=\\"'
p41
sg5
I13
sba(iComment
Comment
p42
(dp43
g3
S'">Booking Details</font></b></html>"'
p44
sg5
I14
sba(iComment
Comment
p45
(dp46
g3
S'"From          :"'
p47
sg5
I15
sba(iComment
Comment
p48
(dp49
g3
S'"To               :"'
p50
sg5
I16
sba(iComment
Comment
p51
(dp52
g3
S'"Booking Date:"'
p53
sg5
I17
sba(iComment
Comment
p54
(dp55
g3
S'"Class         :"'
p56
sg5
I18
sba(iComment
Comment
p57
(dp58
g3
S'"(DD/MM/YYYY)"'
p59
sg5
I19
sba(iComment
Comment
p60
(dp61
g3
S'"map1.jpg"'
p62
sg5
I20
sba(iComment
Comment
p63
(dp64
g3
S'"Find Flight"'
p65
sg5
I21
sba(iComment
Comment
p66
(dp67
g3
S'"<html><b><font color=\\"'
p68
sg5
I22
sba(iComment
Comment
p69
(dp70
g3
S'">PassengerDetails</font></b></html>"'
p71
sg5
I23
sba(iComment
Comment
p72
(dp73
g3
S'"Adults(12+)"'
p74
sg5
I24
sba(iComment
Comment
p75
(dp76
g3
S'"Children(2-11)"'
p77
sg5
I25
sba(iComment
Comment
p78
(dp79
g3
S'"Infants(under 2)"'
p80
sg5
I26
sba(iComment
Comment
p81
(dp82
g3
S'"1"'
p83
sg5
I27
sba(iComment
Comment
p84
(dp85
g3
S'"2"'
p86
sg5
I28
sba(iComment
Comment
p87
(dp88
g3
S'"3"'
p89
sg5
I29
sba(iComment
Comment
p90
(dp91
g3
S'"4"'
p92
sg5
I30
sba(iComment
Comment
p93
(dp94
g3
S'"5"'
p95
sg5
I31
sba(iComment
Comment
p96
(dp97
g3
S'"6"'
p98
sg5
I32
sba(iComment
Comment
p99
(dp100
g3
S'"0"'
p101
sg5
I33
sba(iComment
Comment
p102
(dp103
g3
S'"1"'
p104
sg5
I34
sba(iComment
Comment
p105
(dp106
g3
S'"2"'
p107
sg5
I35
sba(iComment
Comment
p108
(dp109
g3
S'"3"'
p110
sg5
I36
sba(iComment
Comment
p111
(dp112
g3
S'"4"'
p113
sg5
I37
sba(iComment
Comment
p114
(dp115
g3
S'"0"'
p116
sg5
I38
sba(iComment
Comment
p117
(dp118
g3
S'"1"'
p119
sg5
I39
sba(iComment
Comment
p120
(dp121
g3
S'"2"'
p122
sg5
I40
sba(iComment
Comment
p123
(dp124
g3
S'"3"'
p125
sg5
I41
sba(iComment
Comment
p126
(dp127
g3
S'"note_bg.gif"'
p128
sg5
I42
sba(iComment
Comment
p129
(dp130
g3
S'"<html><body><p>NOTE: Bookings with International Credit Cards <p> have temporarily been suspended.This Service<p> will resume shortly and we will have a notice<p> posted on our website.We regret any <p>inconvenience caused to our passengers.</body></html>"'
p131
sg5
I43
sba(iComment
Comment
p132
(dp133
g3
S'""'
p134
sg5
I44
sba(iComment
Comment
p135
(dp136
g3
S'"Economic"'
p137
sg5
I45
sba(iComment
Comment
p138
(dp139
g3
S'"You have no rights to access"'
p140
sg5
I46
sba(iComment
Comment
p141
(dp142
g3
S'"You have no rights to access it"'
p143
sg5
I47
sba(iComment
Comment
p144
(dp145
g3
S'" "'
p146
sg5
I48
sba(iComment
Comment
p147
(dp148
g3
S'"save2"'
p149
sg5
I49
sba(iComment
Comment
p150
(dp151
g3
S'"Seats are full. Sorry!"'
p152
sg5
I50
sba(iComment
Comment
p153
(dp154
g3
S'"Seats available. Do you want to Book now?"'
p155
sg5
I51
sba(iComment
Comment
p156
(dp157
g3
S'"save2"'
p158
sg5
I52
sba(iComment
Comment
p159
(dp160
g3
S'" "'
p161
sg5
I53
sba(iComment
Comment
p162
(dp163
g3
S'" "'
p164
sg5
I54
sba(iComment
Comment
p165
(dp166
g3
S'" "'
p167
sg5
I55
sba(iComment
Comment
p168
(dp169
g3
S'" "'
p170
sg5
I56
sba(iComment
Comment
p171
(dp172
g3
S'" "'
p173
sg5
I57
sba(iComment
Comment
p174
(dp175
g3
S'" "'
p176
sg5
I58
sba(iComment
Comment
p177
(dp178
g3
S'" "'
p179
sg5
I59
sba(iComment
Comment
p180
(dp181
g3
S'" "'
p182
sg5
I60
sba(iComment
Comment
p183
(dp184
g3
S'//read from data\n'
p185
sg5
I61
sba(iComment
Comment
p186
(dp187
g3
S'//write into data\n'
p188
sg5
I62
sba(iComment
Comment
p189
(dp190
g3
S'//\tint iCount;\n'
p191
sg5
I63
sba(iComment
Comment
p192
(dp193
g3
S'//\t\tthis.iCount = iCount;\n'
p194
sg5
I64
sba(iComment
Comment
p195
(dp196
g3
S'"Trivandrum"'
p197
sg5
I65
sba(iComment
Comment
p198
(dp199
g3
S'"Bali"'
p200
sg5
I66
sba(iComment
Comment
p201
(dp202
g3
S'"Bangkok"'
p203
sg5
I67
sba(iComment
Comment
p204
(dp205
g3
S'"Cairo"'
p206
sg5
I68
sba(iComment
Comment
p207
(dp208
g3
S'"CapeTown"'
p209
sg5
I69
sba(iComment
Comment
p210
(dp211
g3
S'"Chicago"'
p212
sg5
I70
sba(iComment
Comment
p213
(dp214
g3
S'"Dubai"'
p215
sg5
I71
sba(iComment
Comment
p216
(dp217
g3
S'"Frankfurt"'
p218
sg5
I72
sba(iComment
Comment
p219
(dp220
g3
S'"HongKong"'
p221
sg5
I73
sba(iComment
Comment
p222
(dp223
g3
S'"Istanbul"'
p224
sg5
I74
sba(iComment
Comment
p225
(dp226
g3
S'"London"'
p227
sg5
I75
sba(iComment
Comment
p228
(dp229
g3
S'"LosAngeles"'
p230
sg5
I76
sba(iComment
Comment
p231
(dp232
g3
S'"Melbourne"'
p233
sg5
I77
sba(iComment
Comment
p234
(dp235
g3
S'"New York"'
p236
sg5
I78
sba(iComment
Comment
p237
(dp238
g3
S'"Paris"'
p239
sg5
I79
sba(iComment
Comment
p240
(dp241
g3
S'"Rome"'
p242
sg5
I80
sba(iComment
Comment
p243
(dp244
g3
S'"SanFrancisco"'
p245
sg5
I81
sba(iComment
Comment
p246
(dp247
g3
S'"shanghai"'
p248
sg5
I82
sba(iComment
Comment
p249
(dp250
g3
S'"Singapore"'
p251
sg5
I83
sba(iComment
Comment
p252
(dp253
g3
S'"Sydney"'
p254
sg5
I84
sba(iComment
Comment
p255
(dp256
g3
S'"Toronto"'
p257
sg5
I85
sba(iComment
Comment
p258
(dp259
g3
S'"Economic"'
p260
sg5
I86
sba(iComment
Comment
p261
(dp262
g3
S'"Business"'
p263
sg5
I87
sba(iComment
Comment
p264
(dp265
g3
S'"<html><b><font color=\\"'
p266
sg5
I88
sba(iComment
Comment
p267
(dp268
g3
S'">Booking Details</font></b></html>"'
p269
sg5
I89
sba(iComment
Comment
p270
(dp271
g3
S'"From          :"'
p272
sg5
I90
sba(iComment
Comment
p273
(dp274
g3
S'"To               :"'
p275
sg5
I91
sba(iComment
Comment
p276
(dp277
g3
S'"Booking Date:"'
p278
sg5
I92
sba(iComment
Comment
p279
(dp280
g3
S'"Class         :"'
p281
sg5
I93
sba(iComment
Comment
p282
(dp283
g3
S'"(DD/MM/YYYY)"'
p284
sg5
I94
sba(iComment
Comment
p285
(dp286
g3
S'"map1.jpg"'
p287
sg5
I95
sba(iComment
Comment
p288
(dp289
g3
S'"Find Flight"'
p290
sg5
I96
sba(iComment
Comment
p291
(dp292
g3
S'"<html><b><font color=\\"'
p293
sg5
I97
sba(iComment
Comment
p294
(dp295
g3
S'">PassengerDetails</font></b></html>"'
p296
sg5
I98
sba(iComment
Comment
p297
(dp298
g3
S'"Adults(12+)"'
p299
sg5
I99
sba(iComment
Comment
p300
(dp301
g3
S'"Children(2-11)"'
p302
sg5
I100
sba(iComment
Comment
p303
(dp304
g3
S'"Infants(under 2)"'
p305
sg5
I101
sba(iComment
Comment
p306
(dp307
g3
S'"1"'
p308
sg5
I102
sba(iComment
Comment
p309
(dp310
g3
S'"2"'
p311
sg5
I103
sba(iComment
Comment
p312
(dp313
g3
S'"3"'
p314
sg5
I104
sba(iComment
Comment
p315
(dp316
g3
S'"4"'
p317
sg5
I105
sba(iComment
Comment
p318
(dp319
g3
S'"5"'
p320
sg5
I106
sba(iComment
Comment
p321
(dp322
g3
S'"6"'
p323
sg5
I107
sba(iComment
Comment
p324
(dp325
g3
S'"0"'
p326
sg5
I108
sba(iComment
Comment
p327
(dp328
g3
S'"1"'
p329
sg5
I109
sba(iComment
Comment
p330
(dp331
g3
S'"2"'
p332
sg5
I110
sba(iComment
Comment
p333
(dp334
g3
S'"3"'
p335
sg5
I111
sba(iComment
Comment
p336
(dp337
g3
S'"4"'
p338
sg5
I112
sba(iComment
Comment
p339
(dp340
g3
S'"0"'
p341
sg5
I113
sba(iComment
Comment
p342
(dp343
g3
S'"1"'
p344
sg5
I114
sba(iComment
Comment
p345
(dp346
g3
S'"2"'
p347
sg5
I115
sba(iComment
Comment
p348
(dp349
g3
S'"3"'
p350
sg5
I116
sba(iComment
Comment
p351
(dp352
g3
S'"note_bg.gif"'
p353
sg5
I117
sba(iComment
Comment
p354
(dp355
g3
S'"<html><body><p>NOTE: Bookings with International Credit Cards <p> have temporarily been suspended.This Service<p> will resume shortly and we will have a notice<p> posted on our website.We regret any <p>inconvenience caused to our passengers.</body></html>"'
p356
sg5
I118
sba(iComment
Comment
p357
(dp358
g3
S'""'
p359
sg5
I119
sba(iComment
Comment
p360
(dp361
g3
S'"Economic"'
p362
sg5
I120
sba(iComment
Comment
p363
(dp364
g3
S'"You have no rights to access"'
p365
sg5
I121
sba(iComment
Comment
p366
(dp367
g3
S'"You have no rights to access it"'
p368
sg5
I122
sba(iComment
Comment
p369
(dp370
g3
S'" "'
p371
sg5
I123
sba(iComment
Comment
p372
(dp373
g3
S'"save1"'
p374
sg5
I124
sba(iComment
Comment
p375
(dp376
g3
S'"Seats are full. Sorry!"'
p377
sg5
I125
sba(iComment
Comment
p378
(dp379
g3
S'"Seats available. Do you want to Book now?"'
p380
sg5
I126
sba(iComment
Comment
p381
(dp382
g3
S'"save1"'
p383
sg5
I127
sba(iComment
Comment
p384
(dp385
g3
S'" "'
p386
sg5
I128
sba(iComment
Comment
p387
(dp388
g3
S'" "'
p389
sg5
I129
sba(iComment
Comment
p390
(dp391
g3
S'" "'
p392
sg5
I130
sba(iComment
Comment
p393
(dp394
g3
S'" "'
p395
sg5
I131
sba(iComment
Comment
p396
(dp397
g3
S'" "'
p398
sg5
I132
sba(iComment
Comment
p399
(dp400
g3
S'" "'
p401
sg5
I133
sba(iComment
Comment
p402
(dp403
g3
S'" "'
p404
sg5
I134
sba(iComment
Comment
p405
(dp406
g3
S'" "'
p407
sg5
I135
sba(iComment
Comment
p408
(dp409
g3
S'//read from data\n'
p410
sg5
I136
sba(iComment
Comment
p411
(dp412
g3
S'//write into data\n'
p413
sg5
I137
sba(iComment
Comment
p414
(dp415
g3
S'//\tint iCount;\n'
p416
sg5
I138
sba(iComment
Comment
p417
(dp418
g3
S'//\t\tthis.iCount = iCount;\n'
p419
sg5
I139
sba(iComment
Comment
p420
(dp421
g3
S'"         User Name "'
p422
sg5
I140
sba(iComment
Comment
p423
(dp424
g3
S'"         Password "'
p425
sg5
I141
sba(iComment
Comment
p426
(dp427
g3
S'"Sign In"'
p428
sg5
I142
sba(iComment
Comment
p429
(dp430
g3
S'"admin"'
p431
sg5
I143
sba(iComment
Comment
p432
(dp433
g3
S'"Invalid username or password. Try again"'
p434
sg5
I144
sba(iComment
Comment
p435
(dp436
g3
S"'a'"
p437
sg5
I145
sba(iComment
Comment
p438
(dp439
g3
S"'d'"
p440
sg5
I146
sba(iComment
Comment
p441
(dp442
g3
S"'m'"
p443
sg5
I147
sba(iComment
Comment
p444
(dp445
g3
S"'i'"
p446
sg5
I148
sba(iComment
Comment
p447
(dp448
g3
S"'n'"
p449
sg5
I149
sba(iComment
Comment
p450
(dp451
g3
S"'\\0'"
p452
sg5
I150
sba(iComment
Comment
p453
(dp454
g3
S'//pack();\n'
p455
sg5
I151
sba(iComment
Comment
p456
(dp457
g3
S'"Error setting native LAF: "'
p458
sg5
I152
sba.